; ModuleID = '39/660.c'
source_filename = "39/660.c"
target datalayout = "e-m:e-p270:32:32-p271:32:32-p272:64:64-i64:64-f80:128-n8:16:32:64-S128"
target triple = "x86_64-pc-linux-gnu"

%struct.stu = type { [20 x i8], i32, i32, [2 x i8], [2 x i8], i32, i32 }

@.str = private unnamed_addr constant [3 x i8] c"%d\00", align 1
@.str.1 = private unnamed_addr constant [3 x i8] c"%s\00", align 1
@a = common dso_local global [100 x %struct.stu] zeroinitializer, align 16
@.str.2 = private unnamed_addr constant [5 x i8] c"%d%d\00", align 1
@.str.3 = private unnamed_addr constant [10 x i8] c"%s\0A%d\0A%d\0A\00", align 1

; Function Attrs: noinline nounwind uwtable
define dso_local i32 @main() #0 {
  %1 = alloca i32, align 4
  %2 = alloca i32, align 4
  %3 = alloca i32, align 4
  %4 = alloca i32, align 4
  %5 = alloca i32, align 4
  %6 = alloca i32, align 4
  store i32 0, i32* %1, align 4
  %7 = call i32 (i8*, ...) @__isoc99_scanf(i8* getelementptr inbounds ([3 x i8], [3 x i8]* @.str, i64 0, i64 0), i32* %2)
  store i32 0, i32* %3, align 4
  br label %8

8:                                                ; preds = %45, %0
  %9 = load i32, i32* %3, align 4
  %10 = load i32, i32* %2, align 4
  %11 = icmp slt i32 %9, %10
  br i1 %11, label %12, label %48

12:                                               ; preds = %8
  %13 = load i32, i32* %3, align 4
  %14 = sext i32 %13 to i64
  %15 = getelementptr inbounds [100 x %struct.stu], [100 x %struct.stu]* @a, i64 0, i64 %14
  %16 = getelementptr inbounds %struct.stu, %struct.stu* %15, i32 0, i32 0
  %17 = getelementptr inbounds [20 x i8], [20 x i8]* %16, i64 0, i64 0
  %18 = call i32 (i8*, ...) @__isoc99_scanf(i8* getelementptr inbounds ([3 x i8], [3 x i8]* @.str.1, i64 0, i64 0), i8* %17)
  %19 = load i32, i32* %3, align 4
  %20 = sext i32 %19 to i64
  %21 = getelementptr inbounds [100 x %struct.stu], [100 x %struct.stu]* @a, i64 0, i64 %20
  %22 = getelementptr inbounds %struct.stu, %struct.stu* %21, i32 0, i32 1
  %23 = load i32, i32* %3, align 4
  %24 = sext i32 %23 to i64
  %25 = getelementptr inbounds [100 x %struct.stu], [100 x %struct.stu]* @a, i64 0, i64 %24
  %26 = getelementptr inbounds %struct.stu, %struct.stu* %25, i32 0, i32 2
  %27 = call i32 (i8*, ...) @__isoc99_scanf(i8* getelementptr inbounds ([5 x i8], [5 x i8]* @.str.2, i64 0, i64 0), i32* %22, i32* %26)
  %28 = load i32, i32* %3, align 4
  %29 = sext i32 %28 to i64
  %30 = getelementptr inbounds [100 x %struct.stu], [100 x %struct.stu]* @a, i64 0, i64 %29
  %31 = getelementptr inbounds %struct.stu, %struct.stu* %30, i32 0, i32 3
  %32 = getelementptr inbounds [2 x i8], [2 x i8]* %31, i64 0, i64 0
  %33 = call i32 (i8*, ...) @__isoc99_scanf(i8* getelementptr inbounds ([3 x i8], [3 x i8]* @.str.1, i64 0, i64 0), i8* %32)
  %34 = load i32, i32* %3, align 4
  %35 = sext i32 %34 to i64
  %36 = getelementptr inbounds [100 x %struct.stu], [100 x %struct.stu]* @a, i64 0, i64 %35
  %37 = getelementptr inbounds %struct.stu, %struct.stu* %36, i32 0, i32 4
  %38 = getelementptr inbounds [2 x i8], [2 x i8]* %37, i64 0, i64 0
  %39 = call i32 (i8*, ...) @__isoc99_scanf(i8* getelementptr inbounds ([3 x i8], [3 x i8]* @.str.1, i64 0, i64 0), i8* %38)
  %40 = load i32, i32* %3, align 4
  %41 = sext i32 %40 to i64
  %42 = getelementptr inbounds [100 x %struct.stu], [100 x %struct.stu]* @a, i64 0, i64 %41
  %43 = getelementptr inbounds %struct.stu, %struct.stu* %42, i32 0, i32 5
  %44 = call i32 (i8*, ...) @__isoc99_scanf(i8* getelementptr inbounds ([3 x i8], [3 x i8]* @.str, i64 0, i64 0), i32* %43)
  br label %45

45:                                               ; preds = %12
  %46 = load i32, i32* %3, align 4
  %47 = add nsw i32 %46, 1
  store i32 %47, i32* %3, align 4
  br label %8

48:                                               ; preds = %8
  store i32 0, i32* %3, align 4
  br label %49

49:                                               ; preds = %180, %48
  %50 = load i32, i32* %3, align 4
  %51 = load i32, i32* %2, align 4
  %52 = icmp slt i32 %50, %51
  br i1 %52, label %53, label %183

53:                                               ; preds = %49
  %54 = load i32, i32* %3, align 4
  %55 = sext i32 %54 to i64
  %56 = getelementptr inbounds [100 x %struct.stu], [100 x %struct.stu]* @a, i64 0, i64 %55
  %57 = getelementptr inbounds %struct.stu, %struct.stu* %56, i32 0, i32 6
  store i32 0, i32* %57, align 4
  %58 = load i32, i32* %3, align 4
  %59 = sext i32 %58 to i64
  %60 = getelementptr inbounds [100 x %struct.stu], [100 x %struct.stu]* @a, i64 0, i64 %59
  %61 = getelementptr inbounds %struct.stu, %struct.stu* %60, i32 0, i32 1
  %62 = load i32, i32* %61, align 4
  %63 = icmp sgt i32 %62, 80
  br i1 %63, label %64, label %82

64:                                               ; preds = %53
  %65 = load i32, i32* %3, align 4
  %66 = sext i32 %65 to i64
  %67 = getelementptr inbounds [100 x %struct.stu], [100 x %struct.stu]* @a, i64 0, i64 %66
  %68 = getelementptr inbounds %struct.stu, %struct.stu* %67, i32 0, i32 5
  %69 = load i32, i32* %68, align 8
  %70 = icmp sge i32 %69, 1
  br i1 %70, label %71, label %82

71:                                               ; preds = %64
  %72 = load i32, i32* %3, align 4
  %73 = sext i32 %72 to i64
  %74 = getelementptr inbounds [100 x %struct.stu], [100 x %struct.stu]* @a, i64 0, i64 %73
  %75 = getelementptr inbounds %struct.stu, %struct.stu* %74, i32 0, i32 6
  %76 = load i32, i32* %75, align 4
  %77 = add nsw i32 %76, 8000
  %78 = load i32, i32* %3, align 4
  %79 = sext i32 %78 to i64
  %80 = getelementptr inbounds [100 x %struct.stu], [100 x %struct.stu]* @a, i64 0, i64 %79
  %81 = getelementptr inbounds %struct.stu, %struct.stu* %80, i32 0, i32 6
  store i32 %77, i32* %81, align 4
  br label %82

82:                                               ; preds = %71, %64, %53
  %83 = load i32, i32* %3, align 4
  %84 = sext i32 %83 to i64
  %85 = getelementptr inbounds [100 x %struct.stu], [100 x %struct.stu]* @a, i64 0, i64 %84
  %86 = getelementptr inbounds %struct.stu, %struct.stu* %85, i32 0, i32 1
  %87 = load i32, i32* %86, align 4
  %88 = icmp sgt i32 %87, 85
  br i1 %88, label %89, label %107

89:                                               ; preds = %82
  %90 = load i32, i32* %3, align 4
  %91 = sext i32 %90 to i64
  %92 = getelementptr inbounds [100 x %struct.stu], [100 x %struct.stu]* @a, i64 0, i64 %91
  %93 = getelementptr inbounds %struct.stu, %struct.stu* %92, i32 0, i32 2
  %94 = load i32, i32* %93, align 8
  %95 = icmp sgt i32 %94, 80
  br i1 %95, label %96, label %107

96:                                               ; preds = %89
  %97 = load i32, i32* %3, align 4
  %98 = sext i32 %97 to i64
  %99 = getelementptr inbounds [100 x %struct.stu], [100 x %struct.stu]* @a, i64 0, i64 %98
  %100 = getelementptr inbounds %struct.stu, %struct.stu* %99, i32 0, i32 6
  %101 = load i32, i32* %100, align 4
  %102 = add nsw i32 %101, 4000
  %103 = load i32, i32* %3, align 4
  %104 = sext i32 %103 to i64
  %105 = getelementptr inbounds [100 x %struct.stu], [100 x %struct.stu]* @a, i64 0, i64 %104
  %106 = getelementptr inbounds %struct.stu, %struct.stu* %105, i32 0, i32 6
  store i32 %102, i32* %106, align 4
  br label %107

107:                                              ; preds = %96, %89, %82
  %108 = load i32, i32* %3, align 4
  %109 = sext i32 %108 to i64
  %110 = getelementptr inbounds [100 x %struct.stu], [100 x %struct.stu]* @a, i64 0, i64 %109
  %111 = getelementptr inbounds %struct.stu, %struct.stu* %110, i32 0, i32 1
  %112 = load i32, i32* %111, align 4
  %113 = icmp sgt i32 %112, 90
  br i1 %113, label %114, label %125

114:                                              ; preds = %107
  %115 = load i32, i32* %3, align 4
  %116 = sext i32 %115 to i64
  %117 = getelementptr inbounds [100 x %struct.stu], [100 x %struct.stu]* @a, i64 0, i64 %116
  %118 = getelementptr inbounds %struct.stu, %struct.stu* %117, i32 0, i32 6
  %119 = load i32, i32* %118, align 4
  %120 = add nsw i32 %119, 2000
  %121 = load i32, i32* %3, align 4
  %122 = sext i32 %121 to i64
  %123 = getelementptr inbounds [100 x %struct.stu], [100 x %struct.stu]* @a, i64 0, i64 %122
  %124 = getelementptr inbounds %struct.stu, %struct.stu* %123, i32 0, i32 6
  store i32 %120, i32* %124, align 4
  br label %125

125:                                              ; preds = %114, %107
  %126 = load i32, i32* %3, align 4
  %127 = sext i32 %126 to i64
  %128 = getelementptr inbounds [100 x %struct.stu], [100 x %struct.stu]* @a, i64 0, i64 %127
  %129 = getelementptr inbounds %struct.stu, %struct.stu* %128, i32 0, i32 1
  %130 = load i32, i32* %129, align 4
  %131 = icmp sgt i32 %130, 85
  br i1 %131, label %132, label %152

132:                                              ; preds = %125
  %133 = load i32, i32* %3, align 4
  %134 = sext i32 %133 to i64
  %135 = getelementptr inbounds [100 x %struct.stu], [100 x %struct.stu]* @a, i64 0, i64 %134
  %136 = getelementptr inbounds %struct.stu, %struct.stu* %135, i32 0, i32 4
  %137 = getelementptr inbounds [2 x i8], [2 x i8]* %136, i64 0, i64 0
  %138 = load i8, i8* %137, align 2
  %139 = sext i8 %138 to i32
  %140 = icmp eq i32 %139, 89
  br i1 %140, label %141, label %152

141:                                              ; preds = %132
  %142 = load i32, i32* %3, align 4
  %143 = sext i32 %142 to i64
  %144 = getelementptr inbounds [100 x %struct.stu], [100 x %struct.stu]* @a, i64 0, i64 %143
  %145 = getelementptr inbounds %struct.stu, %struct.stu* %144, i32 0, i32 6
  %146 = load i32, i32* %145, align 4
  %147 = add nsw i32 %146, 1000
  %148 = load i32, i32* %3, align 4
  %149 = sext i32 %148 to i64
  %150 = getelementptr inbounds [100 x %struct.stu], [100 x %struct.stu]* @a, i64 0, i64 %149
  %151 = getelementptr inbounds %struct.stu, %struct.stu* %150, i32 0, i32 6
  store i32 %147, i32* %151, align 4
  br label %152

152:                                              ; preds = %141, %132, %125
  %153 = load i32, i32* %3, align 4
  %154 = sext i32 %153 to i64
  %155 = getelementptr inbounds [100 x %struct.stu], [100 x %struct.stu]* @a, i64 0, i64 %154
  %156 = getelementptr inbounds %struct.stu, %struct.stu* %155, i32 0, i32 2
  %157 = load i32, i32* %156, align 8
  %158 = icmp sgt i32 %157, 80
  br i1 %158, label %159, label %179

159:                                              ; preds = %152
  %160 = load i32, i32* %3, align 4
  %161 = sext i32 %160 to i64
  %162 = getelementptr inbounds [100 x %struct.stu], [100 x %struct.stu]* @a, i64 0, i64 %161
  %163 = getelementptr inbounds %struct.stu, %struct.stu* %162, i32 0, i32 3
  %164 = getelementptr inbounds [2 x i8], [2 x i8]* %163, i64 0, i64 0
  %165 = load i8, i8* %164, align 4
  %166 = sext i8 %165 to i32
  %167 = icmp eq i32 %166, 89
  br i1 %167, label %168, label %179

168:                                              ; preds = %159
  %169 = load i32, i32* %3, align 4
  %170 = sext i32 %169 to i64
  %171 = getelementptr inbounds [100 x %struct.stu], [100 x %struct.stu]* @a, i64 0, i64 %170
  %172 = getelementptr inbounds %struct.stu, %struct.stu* %171, i32 0, i32 6
  %173 = load i32, i32* %172, align 4
  %174 = add nsw i32 %173, 850
  %175 = load i32, i32* %3, align 4
  %176 = sext i32 %175 to i64
  %177 = getelementptr inbounds [100 x %struct.stu], [100 x %struct.stu]* @a, i64 0, i64 %176
  %178 = getelementptr inbounds %struct.stu, %struct.stu* %177, i32 0, i32 6
  store i32 %174, i32* %178, align 4
  br label %179

179:                                              ; preds = %168, %159, %152
  br label %180

180:                                              ; preds = %179
  %181 = load i32, i32* %3, align 4
  %182 = add nsw i32 %181, 1
  store i32 %182, i32* %3, align 4
  br label %49

183:                                              ; preds = %49
  %184 = load i32, i32* getelementptr inbounds ([100 x %struct.stu], [100 x %struct.stu]* @a, i64 0, i64 0, i32 6), align 4
  store i32 %184, i32* %4, align 4
  store i32 0, i32* %5, align 4
  store i32 0, i32* %6, align 4
  store i32 0, i32* %3, align 4
  br label %185

185:                                              ; preds = %212, %183
  %186 = load i32, i32* %3, align 4
  %187 = load i32, i32* %2, align 4
  %188 = icmp slt i32 %186, %187
  br i1 %188, label %189, label %215

189:                                              ; preds = %185
  %190 = load i32, i32* %4, align 4
  %191 = load i32, i32* %3, align 4
  %192 = sext i32 %191 to i64
  %193 = getelementptr inbounds [100 x %struct.stu], [100 x %struct.stu]* @a, i64 0, i64 %192
  %194 = getelementptr inbounds %struct.stu, %struct.stu* %193, i32 0, i32 6
  %195 = load i32, i32* %194, align 4
  %196 = icmp slt i32 %190, %195
  br i1 %196, label %197, label %204

197:                                              ; preds = %189
  %198 = load i32, i32* %3, align 4
  %199 = sext i32 %198 to i64
  %200 = getelementptr inbounds [100 x %struct.stu], [100 x %struct.stu]* @a, i64 0, i64 %199
  %201 = getelementptr inbounds %struct.stu, %struct.stu* %200, i32 0, i32 6
  %202 = load i32, i32* %201, align 4
  store i32 %202, i32* %4, align 4
  %203 = load i32, i32* %3, align 4
  store i32 %203, i32* %5, align 4
  br label %204

204:                                              ; preds = %197, %189
  %205 = load i32, i32* %6, align 4
  %206 = load i32, i32* %3, align 4
  %207 = sext i32 %206 to i64
  %208 = getelementptr inbounds [100 x %struct.stu], [100 x %struct.stu]* @a, i64 0, i64 %207
  %209 = getelementptr inbounds %struct.stu, %struct.stu* %208, i32 0, i32 6
  %210 = load i32, i32* %209, align 4
  %211 = add nsw i32 %205, %210
  store i32 %211, i32* %6, align 4
  br label %212

212:                                              ; preds = %204
  %213 = load i32, i32* %3, align 4
  %214 = add nsw i32 %213, 1
  store i32 %214, i32* %3, align 4
  br label %185

215:                                              ; preds = %185
  %216 = load i32, i32* %5, align 4
  %217 = sext i32 %216 to i64
  %218 = getelementptr inbounds [100 x %struct.stu], [100 x %struct.stu]* @a, i64 0, i64 %217
  %219 = getelementptr inbounds %struct.stu, %struct.stu* %218, i32 0, i32 0
  %220 = getelementptr inbounds [20 x i8], [20 x i8]* %219, i64 0, i64 0
  %221 = load i32, i32* %5, align 4
  %222 = sext i32 %221 to i64
  %223 = getelementptr inbounds [100 x %struct.stu], [100 x %struct.stu]* @a, i64 0, i64 %222
  %224 = getelementptr inbounds %struct.stu, %struct.stu* %223, i32 0, i32 6
  %225 = load i32, i32* %224, align 4
  %226 = load i32, i32* %6, align 4
  %227 = call i32 (i8*, ...) @printf(i8* getelementptr inbounds ([10 x i8], [10 x i8]* @.str.3, i64 0, i64 0), i8* %220, i32 %225, i32 %226)
  ret i32 0
}

declare dso_local i32 @__isoc99_scanf(i8*, ...) #1

declare dso_local i32 @printf(i8*, ...) #1


!llvm.module.flags = !{!0}
!llvm.ident = !{!1}

!0 = !{i32 1, !"wchar_size", i32 4}
!1 = !{!"clang version 10.0.0-4ubuntu1 "}
